	.file	"H.cpp"
	.text
	.section	.rodata
	.type	_ZStL19piecewise_construct, @object
	.size	_ZStL19piecewise_construct, 1
_ZStL19piecewise_construct:
	.zero	1
	.type	_ZStL13allocator_arg, @object
	.size	_ZStL13allocator_arg, 1
_ZStL13allocator_arg:
	.zero	1
	.type	_ZStL6ignore, @object
	.size	_ZStL6ignore, 1
_ZStL6ignore:
	.zero	1
	.local	_ZStL8__ioinit
	.comm	_ZStL8__ioinit,1,1
	.align 4
	.type	_ZN9__gnu_cxxL21__default_lock_policyE, @object
	.size	_ZN9__gnu_cxxL21__default_lock_policyE, 4
_ZN9__gnu_cxxL21__default_lock_policyE:
	.long	2
	.type	_ZStL10defer_lock, @object
	.size	_ZStL10defer_lock, 1
_ZStL10defer_lock:
	.zero	1
	.type	_ZStL11try_to_lock, @object
	.size	_ZStL11try_to_lock, 1
_ZStL11try_to_lock:
	.zero	1
	.type	_ZStL10adopt_lock, @object
	.size	_ZStL10adopt_lock, 1
_ZStL10adopt_lock:
	.zero	1
	.align 4
	.type	_ZNSt15regex_constantsL5icaseE, @object
	.size	_ZNSt15regex_constantsL5icaseE, 4
_ZNSt15regex_constantsL5icaseE:
	.long	1
	.align 4
	.type	_ZNSt15regex_constantsL6nosubsE, @object
	.size	_ZNSt15regex_constantsL6nosubsE, 4
_ZNSt15regex_constantsL6nosubsE:
	.long	2
	.align 4
	.type	_ZNSt15regex_constantsL8optimizeE, @object
	.size	_ZNSt15regex_constantsL8optimizeE, 4
_ZNSt15regex_constantsL8optimizeE:
	.long	4
	.align 4
	.type	_ZNSt15regex_constantsL7collateE, @object
	.size	_ZNSt15regex_constantsL7collateE, 4
_ZNSt15regex_constantsL7collateE:
	.long	8
	.align 4
	.type	_ZNSt15regex_constantsL10ECMAScriptE, @object
	.size	_ZNSt15regex_constantsL10ECMAScriptE, 4
_ZNSt15regex_constantsL10ECMAScriptE:
	.long	16
	.align 4
	.type	_ZNSt15regex_constantsL5basicE, @object
	.size	_ZNSt15regex_constantsL5basicE, 4
_ZNSt15regex_constantsL5basicE:
	.long	32
	.align 4
	.type	_ZNSt15regex_constantsL8extendedE, @object
	.size	_ZNSt15regex_constantsL8extendedE, 4
_ZNSt15regex_constantsL8extendedE:
	.long	64
	.align 4
	.type	_ZNSt15regex_constantsL3awkE, @object
	.size	_ZNSt15regex_constantsL3awkE, 4
_ZNSt15regex_constantsL3awkE:
	.long	128
	.align 4
	.type	_ZNSt15regex_constantsL4grepE, @object
	.size	_ZNSt15regex_constantsL4grepE, 4
_ZNSt15regex_constantsL4grepE:
	.long	256
	.align 4
	.type	_ZNSt15regex_constantsL5egrepE, @object
	.size	_ZNSt15regex_constantsL5egrepE, 4
_ZNSt15regex_constantsL5egrepE:
	.long	512
	.align 4
	.type	_ZNSt15regex_constantsL12__polynomialE, @object
	.size	_ZNSt15regex_constantsL12__polynomialE, 4
_ZNSt15regex_constantsL12__polynomialE:
	.long	1024
	.align 4
	.type	_ZNSt15regex_constantsL13match_defaultE, @object
	.size	_ZNSt15regex_constantsL13match_defaultE, 4
_ZNSt15regex_constantsL13match_defaultE:
	.zero	4
	.align 4
	.type	_ZNSt15regex_constantsL13match_not_bolE, @object
	.size	_ZNSt15regex_constantsL13match_not_bolE, 4
_ZNSt15regex_constantsL13match_not_bolE:
	.long	1
	.align 4
	.type	_ZNSt15regex_constantsL13match_not_eolE, @object
	.size	_ZNSt15regex_constantsL13match_not_eolE, 4
_ZNSt15regex_constantsL13match_not_eolE:
	.long	2
	.align 4
	.type	_ZNSt15regex_constantsL13match_not_bowE, @object
	.size	_ZNSt15regex_constantsL13match_not_bowE, 4
_ZNSt15regex_constantsL13match_not_bowE:
	.long	4
	.align 4
	.type	_ZNSt15regex_constantsL13match_not_eowE, @object
	.size	_ZNSt15regex_constantsL13match_not_eowE, 4
_ZNSt15regex_constantsL13match_not_eowE:
	.long	8
	.align 4
	.type	_ZNSt15regex_constantsL9match_anyE, @object
	.size	_ZNSt15regex_constantsL9match_anyE, 4
_ZNSt15regex_constantsL9match_anyE:
	.long	16
	.align 4
	.type	_ZNSt15regex_constantsL14match_not_nullE, @object
	.size	_ZNSt15regex_constantsL14match_not_nullE, 4
_ZNSt15regex_constantsL14match_not_nullE:
	.long	32
	.align 4
	.type	_ZNSt15regex_constantsL16match_continuousE, @object
	.size	_ZNSt15regex_constantsL16match_continuousE, 4
_ZNSt15regex_constantsL16match_continuousE:
	.long	64
	.align 4
	.type	_ZNSt15regex_constantsL16match_prev_availE, @object
	.size	_ZNSt15regex_constantsL16match_prev_availE, 4
_ZNSt15regex_constantsL16match_prev_availE:
	.long	128
	.align 4
	.type	_ZNSt15regex_constantsL14format_defaultE, @object
	.size	_ZNSt15regex_constantsL14format_defaultE, 4
_ZNSt15regex_constantsL14format_defaultE:
	.zero	4
	.align 4
	.type	_ZNSt15regex_constantsL10format_sedE, @object
	.size	_ZNSt15regex_constantsL10format_sedE, 4
_ZNSt15regex_constantsL10format_sedE:
	.long	256
	.align 4
	.type	_ZNSt15regex_constantsL14format_no_copyE, @object
	.size	_ZNSt15regex_constantsL14format_no_copyE, 4
_ZNSt15regex_constantsL14format_no_copyE:
	.long	512
	.align 4
	.type	_ZNSt15regex_constantsL17format_first_onlyE, @object
	.size	_ZNSt15regex_constantsL17format_first_onlyE, 4
_ZNSt15regex_constantsL17format_first_onlyE:
	.long	1024
	.align 4
	.type	_ZNSt15regex_constantsL13error_collateE, @object
	.size	_ZNSt15regex_constantsL13error_collateE, 4
_ZNSt15regex_constantsL13error_collateE:
	.zero	4
	.align 4
	.type	_ZNSt15regex_constantsL11error_ctypeE, @object
	.size	_ZNSt15regex_constantsL11error_ctypeE, 4
_ZNSt15regex_constantsL11error_ctypeE:
	.long	1
	.align 4
	.type	_ZNSt15regex_constantsL12error_escapeE, @object
	.size	_ZNSt15regex_constantsL12error_escapeE, 4
_ZNSt15regex_constantsL12error_escapeE:
	.long	2
	.align 4
	.type	_ZNSt15regex_constantsL13error_backrefE, @object
	.size	_ZNSt15regex_constantsL13error_backrefE, 4
_ZNSt15regex_constantsL13error_backrefE:
	.long	3
	.align 4
	.type	_ZNSt15regex_constantsL11error_brackE, @object
	.size	_ZNSt15regex_constantsL11error_brackE, 4
_ZNSt15regex_constantsL11error_brackE:
	.long	4
	.align 4
	.type	_ZNSt15regex_constantsL11error_parenE, @object
	.size	_ZNSt15regex_constantsL11error_parenE, 4
_ZNSt15regex_constantsL11error_parenE:
	.long	5
	.align 4
	.type	_ZNSt15regex_constantsL11error_braceE, @object
	.size	_ZNSt15regex_constantsL11error_braceE, 4
_ZNSt15regex_constantsL11error_braceE:
	.long	6
	.align 4
	.type	_ZNSt15regex_constantsL14error_badbraceE, @object
	.size	_ZNSt15regex_constantsL14error_badbraceE, 4
_ZNSt15regex_constantsL14error_badbraceE:
	.long	7
	.align 4
	.type	_ZNSt15regex_constantsL11error_rangeE, @object
	.size	_ZNSt15regex_constantsL11error_rangeE, 4
_ZNSt15regex_constantsL11error_rangeE:
	.long	8
	.align 4
	.type	_ZNSt15regex_constantsL11error_spaceE, @object
	.size	_ZNSt15regex_constantsL11error_spaceE, 4
_ZNSt15regex_constantsL11error_spaceE:
	.long	9
	.align 4
	.type	_ZNSt15regex_constantsL15error_badrepeatE, @object
	.size	_ZNSt15regex_constantsL15error_badrepeatE, 4
_ZNSt15regex_constantsL15error_badrepeatE:
	.long	10
	.align 4
	.type	_ZNSt15regex_constantsL16error_complexityE, @object
	.size	_ZNSt15regex_constantsL16error_complexityE, 4
_ZNSt15regex_constantsL16error_complexityE:
	.long	11
	.align 4
	.type	_ZNSt15regex_constantsL11error_stackE, @object
	.size	_ZNSt15regex_constantsL11error_stackE, 4
_ZNSt15regex_constantsL11error_stackE:
	.long	12
	.align 8
	.type	_ZNSt8__detailL19_S_invalid_state_idE, @object
	.size	_ZNSt8__detailL19_S_invalid_state_idE, 8
_ZNSt8__detailL19_S_invalid_state_idE:
	.quad	-1
	.align 4
	.type	_ZL3mod, @object
	.size	_ZL3mod, 4
_ZL3mod:
	.long	998244353
	.align 4
	.type	_ZL5sqr17, @object
	.size	_ZL5sqr17, 4
_ZL5sqr17:
	.long	473844410
	.align 4
	.type	_ZL5Sqr17, @object
	.size	_ZL5Sqr17, 4
_ZL5Sqr17:
	.long	524399943
	.text
	.p2align 4
	.globl	_Z3fpmxx
	.type	_Z3fpmxx, @function
_Z3fpmxx:
.LFB8282:
	.cfi_startproc
	movl	$1, %r8d
	testq	%rsi, %rsi
	je	.L1
	movabsq	$155014655926305585, %r10
	movabsq	$-8525806094425994177, %r9
	.p2align 4,,10
	.p2align 3
.L4:
	testb	$1, %sil
	je	.L3
	movq	%r8, %rcx
	imulq	%rdi, %rcx
	movq	%rcx, %rax
	imulq	%r10
	movq	%rcx, %rax
	sarq	$63, %rax
	sarq	$23, %rdx
	subq	%rax, %rdx
	imulq	$998244353, %rdx, %r8
	subq	%r8, %rcx
	movq	%rcx, %r8
.L3:
	movq	%rdi, %rcx
	imulq	%rdi, %rcx
	movq	%rcx, %rax
	mulq	%r9
	movq	%rdx, %rdi
	shrq	$29, %rdi
	imulq	$998244353, %rdi, %rdi
	subq	%rdi, %rcx
	sarq	%rsi
	movq	%rcx, %rdi
	jne	.L4
.L1:
	movq	%r8, %rax
	ret
	.cfi_endproc
.LFE8282:
	.size	_Z3fpmxx, .-_Z3fpmxx
	.globl	n
	.bss
	.align 8
	.type	n, @object
	.size	n, 8
n:
	.zero	8
	.globl	res
	.align 8
	.type	res, @object
	.size	res, 8
res:
	.zero	8
	.globl	ans
	.align 8
	.type	ans, @object
	.size	ans, 8
ans:
	.zero	8
	.globl	tmp
	.align 8
	.type	tmp, @object
	.size	tmp, 8
tmp:
	.zero	8
	.globl	Q
	.align 4
	.type	Q, @object
	.size	Q, 4
Q:
	.zero	4
	.section	.text.startup,"ax",@progbits
	.p2align 4
	.globl	main
	.type	main, @function
main:
.LFB8283:
	.cfi_startproc
	pushq	%r15
	.cfi_def_cfa_offset 16
	.cfi_offset 15, -16
	leaq	Q(%rip), %rsi
	leaq	_ZSt3cin(%rip), %rdi
	pushq	%r14
	.cfi_def_cfa_offset 24
	.cfi_offset 14, -24
	pushq	%r13
	.cfi_def_cfa_offset 32
	.cfi_offset 13, -32
	pushq	%r12
	.cfi_def_cfa_offset 40
	.cfi_offset 12, -40
	pushq	%rbp
	.cfi_def_cfa_offset 48
	.cfi_offset 6, -48
	pushq	%rbx
	.cfi_def_cfa_offset 56
	.cfi_offset 3, -56
	movabsq	$155014655926305585, %rbx
	subq	$40, %rsp
	.cfi_def_cfa_offset 96
	call	_ZNSirsERi@PLT
	leaq	n(%rip), %rsi
	movq	%rax, %rdi
	call	_ZNSirsERx@PLT
	movl	$998244351, %esi
	movl	$2, %edi
	call	_Z3fpmxx
	imulq	$473844413, %rax, %rsi
	imulq	$524399946, %rax, %rcx
	movq	%rsi, %rax
	movq	%rsi, %rdi
	imulq	%rbx
	movq	%rcx, %rax
	sarq	$63, %rdi
	movq	%rdx, %rbp
	imulq	%rbx
	movq	%rcx, %rax
	sarq	$23, %rbp
	sarq	$63, %rax
	subq	%rdi, %rbp
	movl	$473844410, %edi
	movq	%rdx, %rbx
	imulq	$998244353, %rbp, %rbp
	sarq	$23, %rbx
	subq	%rax, %rbx
	imulq	$998244353, %rbx, %rbx
	subq	%rbp, %rsi
	movq	%rsi, %rbp
	movl	$998244351, %esi
	subq	%rbx, %rcx
	movq	%rcx, %rbx
	call	_Z3fpmxx
	movl	$998244351, %esi
	movl	$524399943, %edi
	movq	%rax, 8(%rsp)
	call	_Z3fpmxx
	movl	Q(%rip), %edx
	movq	ans(%rip), %r12
	movq	%rax, 16(%rsp)
	testl	%edx, %edx
	jle	.L13
	leal	1(%rdx), %eax
	movq	n(%rip), %r14
	movq	ans(%rip), %r12
	movl	$1, %r15d
	movl	%eax, 28(%rsp)
	.p2align 4,,10
	.p2align 3
.L14:
	movabsq	$-8525806084487607889, %rax
	movq	%rbp, %rdi
	imulq	%r14
	movq	%r14, %rax
	sarq	$63, %rax
	leaq	(%rdx,%r14), %r11
	sarq	$29, %r11
	subq	%rax, %r11
	movq	%r14, %rax
	imulq	$998244352, %r11, %r11
	subq	%r11, %rax
	movq	%rax, %rsi
	movq	%rax, %r11
	call	_Z3fpmxx
	movq	%rbx, %rdi
	movq	%r11, %rsi
	movq	%rax, %r13
	call	_Z3fpmxx
	movq	8(%rsp), %rsi
	imulq	16(%rsp), %rax
	movabsq	$155014655926305585, %rcx
	imulq	%r13, %rsi
	movq	%rax, %rdi
	movq	%rsi, %rax
	movq	%rsi, %r10
	imulq	%rcx
	movq	%rdi, %rax
	sarq	$63, %r10
	movq	%rdx, %r9
	imulq	%rcx
	movq	%rdi, %rax
	sarq	$63, %rax
	sarq	$23, %r9
	subq	%r10, %r9
	sarq	$23, %rdx
	imulq	$998244353, %r9, %r9
	subq	%rax, %rdx
	imulq	$998244353, %rdx, %rdx
	subq	%r9, %rsi
	subq	%rdx, %rdi
	addq	%rdi, %rsi
	movq	%rsi, %rax
	imulq	%rcx
	movq	%rsi, %rax
	sarq	$63, %rax
	sarq	$23, %rdx
	subq	%rax, %rdx
	imulq	$998244353, %rdx, %rdx
	subq	%rdx, %rsi
	movq	%rsi, %rax
	xorq	%rsi, %r12
	imulq	%rsi, %rax
	xorq	%rax, %r14
	addl	$1, %r15d
	cmpl	%r15d, 28(%rsp)
	jne	.L14
	movq	%r14, n(%rip)
	movq	%r11, tmp(%rip)
	movq	%rsi, res(%rip)
	movq	%r12, ans(%rip)
.L13:
	movq	%r12, %rsi
	leaq	_ZSt4cout(%rip), %rdi
	call	_ZNSolsEx@PLT
	movq	_ZSt4endlIcSt11char_traitsIcEERSt13basic_ostreamIT_T0_ES6_@GOTPCREL(%rip), %rsi
	movq	%rax, %rdi
	call	_ZNSolsEPFRSoS_E@PLT
	addq	$40, %rsp
	.cfi_def_cfa_offset 56
	xorl	%eax, %eax
	popq	%rbx
	.cfi_def_cfa_offset 48
	popq	%rbp
	.cfi_def_cfa_offset 40
	popq	%r12
	.cfi_def_cfa_offset 32
	popq	%r13
	.cfi_def_cfa_offset 24
	popq	%r14
	.cfi_def_cfa_offset 16
	popq	%r15
	.cfi_def_cfa_offset 8
	ret
	.cfi_endproc
.LFE8283:
	.size	main, .-main
	.text
	.type	_Z41__static_initialization_and_destruction_0ii, @function
_Z41__static_initialization_and_destruction_0ii:
.LFB9651:
	.cfi_startproc
	pushq	%rbp
	.cfi_def_cfa_offset 16
	.cfi_offset 6, -16
	movq	%rsp, %rbp
	.cfi_def_cfa_register 6
	subq	$16, %rsp
	movl	%edi, -4(%rbp)
	movl	%esi, -8(%rbp)
	cmpl	$1, -4(%rbp)
	jne	.L20
	cmpl	$65535, -8(%rbp)
	jne	.L20
	leaq	_ZStL8__ioinit(%rip), %rdi
	call	_ZNSt8ios_base4InitC1Ev@PLT
	leaq	__dso_handle(%rip), %rdx
	leaq	_ZStL8__ioinit(%rip), %rsi
	movq	_ZNSt8ios_base4InitD1Ev@GOTPCREL(%rip), %rax
	movq	%rax, %rdi
	call	__cxa_atexit@PLT
.L20:
	nop
	leave
	.cfi_def_cfa 7, 8
	ret
	.cfi_endproc
.LFE9651:
	.size	_Z41__static_initialization_and_destruction_0ii, .-_Z41__static_initialization_and_destruction_0ii
	.type	_GLOBAL__sub_I__Z3fpmxx, @function
_GLOBAL__sub_I__Z3fpmxx:
.LFB9674:
	.cfi_startproc
	pushq	%rbp
	.cfi_def_cfa_offset 16
	.cfi_offset 6, -16
	movq	%rsp, %rbp
	.cfi_def_cfa_register 6
	movl	$65535, %esi
	movl	$1, %edi
	call	_Z41__static_initialization_and_destruction_0ii
	popq	%rbp
	.cfi_def_cfa 7, 8
	ret
	.cfi_endproc
.LFE9674:
	.size	_GLOBAL__sub_I__Z3fpmxx, .-_GLOBAL__sub_I__Z3fpmxx
	.section	.init_array,"aw"
	.align 8
	.quad	_GLOBAL__sub_I__Z3fpmxx
	.hidden	__dso_handle
	.ident	"GCC: (GNU) 9.1.0"
	.section	.note.GNU-stack,"",@progbits
